target datalayout = "e-m:e-p270:32:32-p271:32:32-p272:64:64-i64:64-i128:128-f80:128-n8:16:32:64-S128"
target triple = "x86_64-pc-linux-gnu"

%class.anon = type { i8 }

@.str.79 = private unnamed_addr constant [142 x i8] c"generated/home/dtcxzyw/WorkSpace/Projects/compilers/llvm-opt-benchmark/bench/gromacs/gromacs/src/gromacs/trajectoryanalysis/modules/angle.cpp\00", align 1
@.str.98 = private unnamed_addr constant [6 x i8] c"false\00", align 1
@.str.99 = private unnamed_addr constant [40 x i8] c"Incorrectly initialized number of atoms\00", align 1
@"__PRETTY_FUNCTION__._ZZN3gmx15analysismodules12_GLOBAL__N_18calc_vecEiPA3_fP5t_pbcPfS6_ENK3$_0clEv" = private unnamed_addr constant [136 x i8] c"auto gmx::analysismodules::(anonymous namespace)::calc_vec(int, rvec *, t_pbc *, real *, real *)::(anonymous class)::operator()() const\00", align 1

; Function Attrs: mustprogress uwtable
define internal void @"_ZZN3gmx15analysismodules12_GLOBAL__N_18calc_vecEiPA3_fP5t_pbcPfS6_ENK3$_0clEv"(ptr noundef nonnull align 1 dereferenceable(1) %0) #0 align 2 {
  %2 = alloca ptr, align 8
  store ptr %0, ptr %2, align 8
  call void @_ZN3gmx8internal13assertHandlerEPKcS2_S2_S2_i(ptr noundef @.str.98, ptr noundef @.str.99, ptr noundef @"__PRETTY_FUNCTION__._ZZN3gmx15analysismodules12_GLOBAL__N_18calc_vecEiPA3_fP5t_pbcPfS6_ENK3$_0clEv", ptr noundef @.str.79, i32 noundef 676) #17
  unreachable
}

; Function Attrs: mustprogress nounwind uwtable
define internal void @_ZL5cprodPKfS0_Pf(ptr noundef %0, ptr noundef %1, ptr noundef %2) #3 {
  %4 = alloca ptr, align 8
  %5 = alloca ptr, align 8
  %6 = alloca ptr, align 8
  store ptr %0, ptr %4, align 8
  store ptr %1, ptr %5, align 8
  store ptr %2, ptr %6, align 8
  %7 = load ptr, ptr %4, align 8
  %8 = getelementptr inbounds float, ptr %7, i64 1
  %9 = load float, ptr %8, align 4
  %10 = load ptr, ptr %5, align 8
  %11 = getelementptr inbounds float, ptr %10, i64 2
  %12 = load float, ptr %11, align 4
  %13 = load ptr, ptr %4, align 8
  %14 = getelementptr inbounds float, ptr %13, i64 2
  %15 = load float, ptr %14, align 4
  %16 = load ptr, ptr %5, align 8
  %17 = getelementptr inbounds float, ptr %16, i64 1
  %18 = load float, ptr %17, align 4
  %19 = fmul float %15, %18
  %20 = fneg float %19
  %21 = call float @llvm.fmuladd.f32(float %9, float %12, float %20)
  %22 = load ptr, ptr %6, align 8
  %23 = getelementptr inbounds float, ptr %22, i64 0
  store float %21, ptr %23, align 4
  %24 = load ptr, ptr %4, align 8
  %25 = getelementptr inbounds float, ptr %24, i64 2
  %26 = load float, ptr %25, align 4
  %27 = load ptr, ptr %5, align 8
  %28 = getelementptr inbounds float, ptr %27, i64 0
  %29 = load float, ptr %28, align 4
  %30 = load ptr, ptr %4, align 8
  %31 = getelementptr inbounds float, ptr %30, i64 0
  %32 = load float, ptr %31, align 4
  %33 = load ptr, ptr %5, align 8
  %34 = getelementptr inbounds float, ptr %33, i64 2
  %35 = load float, ptr %34, align 4
  %36 = fmul float %32, %35
  %37 = fneg float %36
  %38 = call float @llvm.fmuladd.f32(float %26, float %29, float %37)
  %39 = load ptr, ptr %6, align 8
  %40 = getelementptr inbounds float, ptr %39, i64 1
  store float %38, ptr %40, align 4
  %41 = load ptr, ptr %4, align 8
  %42 = getelementptr inbounds float, ptr %41, i64 0
  %43 = load float, ptr %42, align 4
  %44 = load ptr, ptr %5, align 8
  %45 = getelementptr inbounds float, ptr %44, i64 1
  %46 = load float, ptr %45, align 4
  %47 = load ptr, ptr %4, align 8
  %48 = getelementptr inbounds float, ptr %47, i64 1
  %49 = load float, ptr %48, align 4
  %50 = load ptr, ptr %5, align 8
  %51 = getelementptr inbounds float, ptr %50, i64 0
  %52 = load float, ptr %51, align 4
  %53 = fmul float %49, %52
  %54 = fneg float %53
  %55 = call float @llvm.fmuladd.f32(float %43, float %46, float %54)
  %56 = load ptr, ptr %6, align 8
  %57 = getelementptr inbounds float, ptr %56, i64 2
  store float %55, ptr %57, align 4
  ret void
}

; Function Attrs: mustprogress nounwind uwtable
define internal void @_ZL8rvec_addPKfS0_Pf(ptr noundef %0, ptr noundef %1, ptr noundef %2) #3 {
  %4 = alloca ptr, align 8
  %5 = alloca ptr, align 8
  %6 = alloca ptr, align 8
  %7 = alloca float, align 4
  %8 = alloca float, align 4
  %9 = alloca float, align 4
  store ptr %0, ptr %4, align 8
  store ptr %1, ptr %5, align 8
  store ptr %2, ptr %6, align 8
  %10 = load ptr, ptr %4, align 8
  %11 = getelementptr inbounds float, ptr %10, i64 0
  %12 = load float, ptr %11, align 4
  %13 = load ptr, ptr %5, align 8
  %14 = getelementptr inbounds float, ptr %13, i64 0
  %15 = load float, ptr %14, align 4
  %16 = fadd float %12, %15
  store float %16, ptr %7, align 4
  %17 = load ptr, ptr %4, align 8
  %18 = getelementptr inbounds float, ptr %17, i64 1
  %19 = load float, ptr %18, align 4
  %20 = load ptr, ptr %5, align 8
  %21 = getelementptr inbounds float, ptr %20, i64 1
  %22 = load float, ptr %21, align 4
  %23 = fadd float %19, %22
  store float %23, ptr %8, align 4
  %24 = load ptr, ptr %4, align 8
  %25 = getelementptr inbounds float, ptr %24, i64 2
  %26 = load float, ptr %25, align 4
  %27 = load ptr, ptr %5, align 8
  %28 = getelementptr inbounds float, ptr %27, i64 2
  %29 = load float, ptr %28, align 4
  %30 = fadd float %26, %29
  store float %30, ptr %9, align 4
  %31 = load float, ptr %7, align 4
  %32 = load ptr, ptr %6, align 8
  %33 = getelementptr inbounds float, ptr %32, i64 0
  store float %31, ptr %33, align 4
  %34 = load float, ptr %8, align 4
  %35 = load ptr, ptr %6, align 8
  %36 = getelementptr inbounds float, ptr %35, i64 1
  store float %34, ptr %36, align 4
  %37 = load float, ptr %9, align 4
  %38 = load ptr, ptr %6, align 8
  %39 = getelementptr inbounds float, ptr %38, i64 2
  store float %37, ptr %39, align 4
  ret void
}

; Function Attrs: mustprogress nounwind uwtable
define internal void @_ZL5svmulfPKfPf(float noundef %0, ptr noundef %1, ptr noundef %2) #3 {
  %4 = alloca float, align 4
  %5 = alloca ptr, align 8
  %6 = alloca ptr, align 8
  store float %0, ptr %4, align 4
  store ptr %1, ptr %5, align 8
  store ptr %2, ptr %6, align 8
  %7 = load float, ptr %4, align 4
  %8 = load ptr, ptr %5, align 8
  %9 = getelementptr inbounds float, ptr %8, i64 0
  %10 = load float, ptr %9, align 4
  %11 = fmul float %7, %10
  %12 = load ptr, ptr %6, align 8
  %13 = getelementptr inbounds float, ptr %12, i64 0
  store float %11, ptr %13, align 4
  %14 = load float, ptr %4, align 4
  %15 = load ptr, ptr %5, align 8
  %16 = getelementptr inbounds float, ptr %15, i64 1
  %17 = load float, ptr %16, align 4
  %18 = fmul float %14, %17
  %19 = load ptr, ptr %6, align 8
  %20 = getelementptr inbounds float, ptr %19, i64 1
  store float %18, ptr %20, align 4
  %21 = load float, ptr %4, align 4
  %22 = load ptr, ptr %5, align 8
  %23 = getelementptr inbounds float, ptr %22, i64 2
  %24 = load float, ptr %23, align 4
  %25 = fmul float %21, %24
  %26 = load ptr, ptr %6, align 8
  %27 = getelementptr inbounds float, ptr %26, i64 2
  store float %25, ptr %27, align 4
  ret void
}

; Function Attrs: mustprogress nounwind uwtable
define internal void @_ZL8rvec_subPKfS0_Pf(ptr noundef %0, ptr noundef %1, ptr noundef %2) #3 {
  %4 = alloca ptr, align 8
  %5 = alloca ptr, align 8
  %6 = alloca ptr, align 8
  %7 = alloca float, align 4
  %8 = alloca float, align 4
  %9 = alloca float, align 4
  store ptr %0, ptr %4, align 8
  store ptr %1, ptr %5, align 8
  store ptr %2, ptr %6, align 8
  %10 = load ptr, ptr %4, align 8
  %11 = getelementptr inbounds float, ptr %10, i64 0
  %12 = load float, ptr %11, align 4
  %13 = load ptr, ptr %5, align 8
  %14 = getelementptr inbounds float, ptr %13, i64 0
  %15 = load float, ptr %14, align 4
  %16 = fsub float %12, %15
  store float %16, ptr %7, align 4
  %17 = load ptr, ptr %4, align 8
  %18 = getelementptr inbounds float, ptr %17, i64 1
  %19 = load float, ptr %18, align 4
  %20 = load ptr, ptr %5, align 8
  %21 = getelementptr inbounds float, ptr %20, i64 1
  %22 = load float, ptr %21, align 4
  %23 = fsub float %19, %22
  store float %23, ptr %8, align 4
  %24 = load ptr, ptr %4, align 8
  %25 = getelementptr inbounds float, ptr %24, i64 2
  %26 = load float, ptr %25, align 4
  %27 = load ptr, ptr %5, align 8
  %28 = getelementptr inbounds float, ptr %27, i64 2
  %29 = load float, ptr %28, align 4
  %30 = fsub float %26, %29
  store float %30, ptr %9, align 4
  %31 = load float, ptr %7, align 4
  %32 = load ptr, ptr %6, align 8
  %33 = getelementptr inbounds float, ptr %32, i64 0
  store float %31, ptr %33, align 4
  %34 = load float, ptr %8, align 4
  %35 = load ptr, ptr %6, align 8
  %36 = getelementptr inbounds float, ptr %35, i64 1
  store float %34, ptr %36, align 4
  %37 = load float, ptr %9, align 4
  %38 = load ptr, ptr %6, align 8
  %39 = getelementptr inbounds float, ptr %38, i64 2
  store float %37, ptr %39, align 4
  ret void
}

; Function Attrs: mustprogress uwtable
define internal void @_ZN3gmx15analysismodules12_GLOBAL__N_18calc_vecEiPA3_fP5t_pbcPfS6_(i32 noundef %0, ptr noundef %1, ptr noundef %2, ptr noundef %3, ptr noundef %4) #0 {
  %6 = alloca i32, align 4
  %7 = alloca ptr, align 8
  %8 = alloca ptr, align 8
  %9 = alloca ptr, align 8
  %10 = alloca ptr, align 8
  %11 = alloca [3 x float], align 4
  %12 = alloca [3 x float], align 4
  %13 = alloca %class.anon, align 1
  store i32 %0, ptr %6, align 4
  store ptr %1, ptr %7, align 8
  store ptr %2, ptr %8, align 8
  store ptr %3, ptr %9, align 8
  store ptr %4, ptr %10, align 8
  %14 = load i32, ptr %6, align 4
  switch i32 %14, label %96 [
    i32 2, label %15
    i32 3, label %43
  ]

15:                                               ; preds = %5
  %16 = load ptr, ptr %8, align 8
  %17 = icmp ne ptr %16, null
  br i1 %17, label %18, label %27

18:                                               ; preds = %15
  %19 = load ptr, ptr %8, align 8
  %20 = load ptr, ptr %7, align 8
  %21 = getelementptr inbounds [3 x float], ptr %20, i64 1
  %22 = getelementptr inbounds [3 x float], ptr %21, i64 0, i64 0
  %23 = load ptr, ptr %7, align 8
  %24 = getelementptr inbounds [3 x float], ptr %23, i64 0
  %25 = getelementptr inbounds [3 x float], ptr %24, i64 0, i64 0
  %26 = load ptr, ptr %9, align 8
  call void @_Z6pbc_dxPK5t_pbcPKfS3_Pf(ptr noundef %19, ptr noundef %22, ptr noundef %25, ptr noundef %26)
  br label %35

27:                                               ; preds = %15
  %28 = load ptr, ptr %7, align 8
  %29 = getelementptr inbounds [3 x float], ptr %28, i64 1
  %30 = getelementptr inbounds [3 x float], ptr %29, i64 0, i64 0
  %31 = load ptr, ptr %7, align 8
  %32 = getelementptr inbounds [3 x float], ptr %31, i64 0
  %33 = getelementptr inbounds [3 x float], ptr %32, i64 0, i64 0
  %34 = load ptr, ptr %9, align 8
  call void @_ZL8rvec_subPKfS0_Pf(ptr noundef %30, ptr noundef %33, ptr noundef %34)
  br label %35

35:                                               ; preds = %27, %18
  %36 = load ptr, ptr %9, align 8
  %37 = load ptr, ptr %10, align 8
  call void @_ZL5svmulfPKfPf(float noundef 5.000000e-01, ptr noundef %36, ptr noundef %37)
  %38 = load ptr, ptr %7, align 8
  %39 = getelementptr inbounds [3 x float], ptr %38, i64 0
  %40 = getelementptr inbounds [3 x float], ptr %39, i64 0, i64 0
  %41 = load ptr, ptr %10, align 8
  %42 = load ptr, ptr %10, align 8
  call void @_ZL8rvec_addPKfS0_Pf(ptr noundef %40, ptr noundef %41, ptr noundef %42)
  br label %97

43:                                               ; preds = %5
  %44 = load ptr, ptr %8, align 8
  %45 = icmp ne ptr %44, null
  br i1 %45, label %46, label %63

46:                                               ; preds = %43
  %47 = load ptr, ptr %8, align 8
  %48 = load ptr, ptr %7, align 8
  %49 = getelementptr inbounds [3 x float], ptr %48, i64 1
  %50 = getelementptr inbounds [3 x float], ptr %49, i64 0, i64 0
  %51 = load ptr, ptr %7, align 8
  %52 = getelementptr inbounds [3 x float], ptr %51, i64 0
  %53 = getelementptr inbounds [3 x float], ptr %52, i64 0, i64 0
  %54 = getelementptr inbounds [3 x float], ptr %11, i64 0, i64 0
  call void @_Z6pbc_dxPK5t_pbcPKfS3_Pf(ptr noundef %47, ptr noundef %50, ptr noundef %53, ptr noundef %54)
  %55 = load ptr, ptr %8, align 8
  %56 = load ptr, ptr %7, align 8
  %57 = getelementptr inbounds [3 x float], ptr %56, i64 2
  %58 = getelementptr inbounds [3 x float], ptr %57, i64 0, i64 0
  %59 = load ptr, ptr %7, align 8
  %60 = getelementptr inbounds [3 x float], ptr %59, i64 0
  %61 = getelementptr inbounds [3 x float], ptr %60, i64 0, i64 0
  %62 = getelementptr inbounds [3 x float], ptr %12, i64 0, i64 0
  call void @_Z6pbc_dxPK5t_pbcPKfS3_Pf(ptr noundef %55, ptr noundef %58, ptr noundef %61, ptr noundef %62)
  br label %78

63:                                               ; preds = %43
  %64 = load ptr, ptr %7, align 8
  %65 = getelementptr inbounds [3 x float], ptr %64, i64 1
  %66 = getelementptr inbounds [3 x float], ptr %65, i64 0, i64 0
  %67 = load ptr, ptr %7, align 8
  %68 = getelementptr inbounds [3 x float], ptr %67, i64 0
  %69 = getelementptr inbounds [3 x float], ptr %68, i64 0, i64 0
  %70 = getelementptr inbounds [3 x float], ptr %11, i64 0, i64 0
  call void @_ZL8rvec_subPKfS0_Pf(ptr noundef %66, ptr noundef %69, ptr noundef %70)
  %71 = load ptr, ptr %7, align 8
  %72 = getelementptr inbounds [3 x float], ptr %71, i64 2
  %73 = getelementptr inbounds [3 x float], ptr %72, i64 0, i64 0
  %74 = load ptr, ptr %7, align 8
  %75 = getelementptr inbounds [3 x float], ptr %74, i64 0
  %76 = getelementptr inbounds [3 x float], ptr %75, i64 0, i64 0
  %77 = getelementptr inbounds [3 x float], ptr %12, i64 0, i64 0
  call void @_ZL8rvec_subPKfS0_Pf(ptr noundef %73, ptr noundef %76, ptr noundef %77)
  br label %78

78:                                               ; preds = %63, %46
  %79 = getelementptr inbounds [3 x float], ptr %11, i64 0, i64 0
  %80 = getelementptr inbounds [3 x float], ptr %12, i64 0, i64 0
  %81 = load ptr, ptr %9, align 8
  call void @_ZL5cprodPKfS0_Pf(ptr noundef %79, ptr noundef %80, ptr noundef %81)
  %82 = load ptr, ptr %7, align 8
  %83 = getelementptr inbounds [3 x float], ptr %82, i64 0
  %84 = getelementptr inbounds [3 x float], ptr %83, i64 0, i64 0
  %85 = load ptr, ptr %7, align 8
  %86 = getelementptr inbounds [3 x float], ptr %85, i64 1
  %87 = getelementptr inbounds [3 x float], ptr %86, i64 0, i64 0
  %88 = load ptr, ptr %10, align 8
  call void @_ZL8rvec_addPKfS0_Pf(ptr noundef %84, ptr noundef %87, ptr noundef %88)
  %89 = load ptr, ptr %10, align 8
  %90 = load ptr, ptr %7, align 8
  %91 = getelementptr inbounds [3 x float], ptr %90, i64 2
  %92 = getelementptr inbounds [3 x float], ptr %91, i64 0, i64 0
  %93 = load ptr, ptr %10, align 8
  call void @_ZL8rvec_addPKfS0_Pf(ptr noundef %89, ptr noundef %92, ptr noundef %93)
  %94 = load ptr, ptr %10, align 8
  %95 = load ptr, ptr %10, align 8
  call void @_ZL5svmulfPKfPf(float noundef 0x3FD5555560000000, ptr noundef %94, ptr noundef %95)
  br label %97

96:                                               ; preds = %5
  call void @"_ZZN3gmx15analysismodules12_GLOBAL__N_18calc_vecEiPA3_fP5t_pbcPfS6_ENK3$_0clEv"(ptr noundef nonnull align 1 dereferenceable(1) %13)
  br label %97

97:                                               ; preds = %96, %78, %35
  ret void
}