; Function Attrs: mustprogress uwtable
define internal fastcc void @_ZN3gmx15analysismodules12_GLOBAL__N_18calc_vecEiPA3_fP5t_pbcPfS6_(i32 noundef %0, ptr noundef %1, ptr noundef %2, ptr noundef %3, ptr nocapture noundef writeonly %4) unnamed_addr #0 {
  %6 = alloca [3 x float], align 4
  %7 = alloca [3 x float], align 4
  switch i32 %0, label %105 [
    i32 2, label %8
    i32 3, label %40
  ]

8:                                                ; preds = %5
  %.not33 = icmp eq ptr %2, null
  %9 = getelementptr inbounds i8, ptr %1, i64 12
  br i1 %.not33, label %11, label %10

10:                                               ; preds = %8
  tail call void @_Z6pbc_dxPK5t_pbcPKfS3_Pf(ptr noundef nonnull %2, ptr noundef nonnull %9, ptr noundef %1, ptr noundef %3)
  %.pre42 = load float, ptr %3, align 4
  br label %22

11:                                               ; preds = %8
  %12 = getelementptr inbounds i8, ptr %1, i64 20
  %13 = load float, ptr %12, align 4
  %14 = getelementptr inbounds i8, ptr %1, i64 8
  %15 = load float, ptr %14, align 4
  %16 = fsub float %13, %15
  %17 = load <2 x float>, ptr %9, align 4
  %18 = load <2 x float>, ptr %1, align 4
  %19 = fsub <2 x float> %17, %18
  store <2 x float> %19, ptr %3, align 4
  %20 = getelementptr inbounds i8, ptr %3, i64 8
  store float %16, ptr %20, align 4
  %21 = extractelement <2 x float> %19, i64 0
  br label %22

22:                                               ; preds = %11, %10
  %23 = phi float [ %21, %11 ], [ %.pre42, %10 ]
  %24 = getelementptr inbounds i8, ptr %3, i64 4
  %25 = getelementptr inbounds i8, ptr %4, i64 4
  %26 = getelementptr inbounds i8, ptr %3, i64 8
  %27 = getelementptr inbounds i8, ptr %4, i64 8
  %28 = getelementptr inbounds i8, ptr %1, i64 8
  %29 = fmul float %23, 5.000000e-01
  store float %29, ptr %4, align 4
  %30 = load float, ptr %24, align 4
  %31 = fmul float %30, 5.000000e-01
  store float %31, ptr %25, align 4
  %32 = load float, ptr %26, align 4
  %33 = fmul float %32, 5.000000e-01
  store float %33, ptr %27, align 4
  %34 = load <2 x float>, ptr %1, align 4
  %35 = insertelement <2 x float> poison, float %29, i64 0
  %36 = insertelement <2 x float> %35, float %31, i64 1
  %37 = fadd <2 x float> %36, %34
  %38 = load float, ptr %28, align 4
  %39 = fadd float %33, %38
  store <2 x float> %37, ptr %4, align 4
  store float %39, ptr %27, align 4
  br label %106

40:                                               ; preds = %5
  %.not = icmp eq ptr %2, null
  %41 = getelementptr inbounds i8, ptr %1, i64 12
  br i1 %.not, label %47, label %42

42:                                               ; preds = %40
  call void @_Z6pbc_dxPK5t_pbcPKfS3_Pf(ptr noundef nonnull %2, ptr noundef nonnull %41, ptr noundef %1, ptr noundef nonnull %6)
  %43 = getelementptr inbounds i8, ptr %1, i64 24
  call void @_Z6pbc_dxPK5t_pbcPKfS3_Pf(ptr noundef nonnull %2, ptr noundef nonnull %43, ptr noundef %1, ptr noundef nonnull %7)
  %.phi.trans.insert = getelementptr inbounds i8, ptr %6, i64 4
  %.phi.trans.insert34 = getelementptr inbounds i8, ptr %7, i64 8
  %.pre35 = load float, ptr %.phi.trans.insert34, align 4
  %44 = load <2 x float>, ptr %.phi.trans.insert, align 4
  %.phi.trans.insert38 = getelementptr inbounds i8, ptr %7, i64 4
  %.pre39 = load float, ptr %.phi.trans.insert38, align 4
  %.pre40 = load float, ptr %7, align 4
  %.pre41 = load float, ptr %6, align 4
  %45 = insertelement <2 x float> poison, float %.pre35, i64 0
  %46 = insertelement <2 x float> %45, float %.pre40, i64 1
  br label %69

47:                                               ; preds = %40
  %48 = load float, ptr %41, align 4
  %49 = load float, ptr %1, align 4
  %50 = fsub float %48, %49
  %51 = getelementptr inbounds i8, ptr %1, i64 16
  %52 = getelementptr inbounds i8, ptr %1, i64 4
  %53 = load <2 x float>, ptr %51, align 4
  %54 = load <2 x float>, ptr %52, align 4
  %55 = fsub <2 x float> %53, %54
  %56 = getelementptr inbounds i8, ptr %1, i64 24
  %57 = load float, ptr %56, align 4
  %58 = getelementptr inbounds i8, ptr %1, i64 28
  %59 = load float, ptr %58, align 4
  %60 = extractelement <2 x float> %54, i64 0
  %61 = fsub float %59, %60
  %62 = getelementptr inbounds i8, ptr %1, i64 32
  %63 = load float, ptr %62, align 4
  %64 = insertelement <2 x float> poison, float %63, i64 0
  %65 = insertelement <2 x float> %64, float %57, i64 1
  %66 = shufflevector <2 x float> %54, <2 x float> poison, <2 x i32> <i32 1, i32 poison>
  %67 = insertelement <2 x float> %66, float %49, i64 1
  %68 = fsub <2 x float> %65, %67
  br label %69

69:                                               ; preds = %47, %42
  %70 = phi float [ %50, %47 ], [ %.pre41, %42 ]
  %71 = phi float [ %61, %47 ], [ %.pre39, %42 ]
  %72 = phi <2 x float> [ %55, %47 ], [ %44, %42 ]
  %73 = phi <2 x float> [ %68, %47 ], [ %46, %42 ]
  %74 = shufflevector <2 x float> %72, <2 x float> poison, <2 x i32> <i32 1, i32 poison>
  %75 = insertelement <2 x float> %74, float %70, i64 1
  %76 = fneg <2 x float> %75
  %77 = shufflevector <2 x float> %73, <2 x float> poison, <2 x i32> <i32 poison, i32 0>
  %78 = insertelement <2 x float> %77, float %71, i64 0
  %79 = fmul <2 x float> %78, %76
  %80 = call <2 x float> @llvm.fmuladd.v2f32(<2 x float> %72, <2 x float> %73, <2 x float> %79)
  store <2 x float> %80, ptr %3, align 4
  %81 = extractelement <2 x float> %72, i64 0
  %82 = fneg float %81
  %83 = extractelement <2 x float> %73, i64 1
  %84 = fmul float %83, %82
  %85 = call float @llvm.fmuladd.f32(float %70, float %71, float %84)
  %86 = getelementptr inbounds i8, ptr %3, i64 8
  store float %85, ptr %86, align 4
  %87 = getelementptr inbounds i8, ptr %1, i64 12
  %88 = getelementptr inbounds i8, ptr %1, i64 8
  %89 = load float, ptr %88, align 4
  %90 = getelementptr inbounds i8, ptr %1, i64 20
  %91 = load float, ptr %90, align 4
  %92 = fadd float %89, %91
  %93 = getelementptr inbounds i8, ptr %4, i64 8
  %94 = getelementptr inbounds i8, ptr %1, i64 24
  %95 = getelementptr inbounds i8, ptr %1, i64 32
  %96 = load <2 x float>, ptr %1, align 4
  %97 = load <2 x float>, ptr %87, align 4
  %98 = fadd <2 x float> %96, %97
  store <2 x float> %98, ptr %4, align 4
  store float %92, ptr %93, align 4
  %99 = load <2 x float>, ptr %94, align 4
  %100 = fadd <2 x float> %98, %99
  %101 = load float, ptr %95, align 4
  %102 = fadd float %92, %101
  %103 = fmul <2 x float> %100, <float 0x3FD5555560000000, float 0x3FD5555560000000>
  store <2 x float> %103, ptr %4, align 4
  %104 = fmul float %102, 0x3FD5555560000000
  store float %104, ptr %93, align 4
  br label %106

105:                                              ; preds = %5
  tail call void @_ZN3gmx8internal13assertHandlerEPKcS2_S2_S2_i(ptr noundef nonnull @.str.98, ptr noundef nonnull @.str.99, ptr noundef nonnull @"__PRETTY_FUNCTION__._ZZN3gmx15analysismodules12_GLOBAL__N_18calc_vecEiPA3_fP5t_pbcPfS6_ENK3$_0clEv", ptr noundef nonnull @.str.79, i32 noundef 676) #24
  unreachable

106:                                              ; preds = %69, %22
  ret void
}